; Function Attrs: nounwind uwtable
define hidden void @luaT_init(ptr noundef %0) local_unnamed_addr #0 {
  %2 = getelementptr inbounds nuw i8, ptr %0, i64 24
  br label %3

3:                                                ; preds = %1, %3
  %indvars.iv = phi i64 [ 0, %1 ], [ %indvars.iv.next, %3 ]
  %4 = getelementptr inbounds nuw [25 x ptr], ptr @luaT_init.luaT_eventname, i64 0, i64 %indvars.iv
  %5 = load ptr, ptr %4, align 8, !tbaa !4
  %6 = tail call ptr @luaS_new(ptr noundef %0, ptr noundef %5) #5
  %7 = load ptr, ptr %2, align 8, !tbaa !9
  %8 = getelementptr inbounds nuw i8, ptr %7, i64 280
  %9 = getelementptr inbounds nuw [25 x ptr], ptr %8, i64 0, i64 %indvars.iv
  store ptr %6, ptr %9, align 8, !tbaa !22
  tail call void @luaC_fix(ptr noundef %0, ptr noundef %6) #5
  %indvars.iv.next = add nuw nsw i64 %indvars.iv, 1
  %exitcond.not = icmp eq i64 %indvars.iv.next, 25
  br i1 %exitcond.not, label %10, label %3

10:                                               ; preds = %3
  ret void
}